target datalayout = "e-m:e-p270:32:32-p271:32:32-p272:64:64-i64:64-i128:128-f80:128-n8:16:32:64-S128"
target triple = "x86_64-pc-linux-gnu"

%struct.AVFilterContext = type { ptr, ptr, ptr, ptr, ptr, i32, ptr, ptr, i32, ptr, ptr, i32, i32, ptr, ptr, ptr, ptr, i32, ptr, i32, i32 }
%struct.LUT2Context = type { ptr, %struct.FFFrameSync, i32, [4 x ptr], [4 x ptr], [6 x double], [4 x ptr], [4 x i32], [4 x i32], [4 x i32], [4 x i32], [4 x i32], [4 x i32], i32, i32, i32, i32, i32, i32, i32, ptr, ptr }
%struct.FFFrameSync = type { ptr, ptr, i32, %struct.AVRational, i64, ptr, ptr, i32, i32, i8, i8, ptr, i32, i32, i32, i32 }
%struct.AVRational = type { i32, i32 }
%struct.AVFilterFormatsConfig = type { ptr, ptr, ptr, ptr, ptr }
%struct.AVFilterLink = type { ptr, ptr, ptr, ptr, i32, i32, i32, i32, %struct.AVRational, i32, i32, i32, %struct.AVChannelLayout, %struct.AVRational, ptr, i32, %struct.AVFilterFormatsConfig, %struct.AVFilterFormatsConfig }
%struct.AVChannelLayout = type { i32, i32, %union.anon.1, ptr }
%union.anon.1 = type { i64 }
%struct.AVPixFmtDescriptor = type { ptr, i8, i8, i8, i64, [4 x %struct.AVComponentDescriptor], ptr }
%struct.AVComponentDescriptor = type { i32, i32, i32, i32, i32 }

; Function Attrs: nounwind uwtable
define internal i32 @config_inputx(ptr noundef %0) #0 {
  %2 = alloca ptr, align 8
  %3 = alloca ptr, align 8
  %4 = alloca ptr, align 8
  %5 = alloca ptr, align 8
  %6 = alloca i32, align 4
  %7 = alloca i32, align 4
  store ptr %0, ptr %2, align 8, !tbaa !44
  call void @llvm.lifetime.start.p0(i64 8, ptr %3) #12
  %8 = load ptr, ptr %2, align 8, !tbaa !44
  %9 = getelementptr inbounds nuw %struct.AVFilterLink, ptr %8, i32 0, i32 2
  %10 = load ptr, ptr %9, align 8, !tbaa !49
  store ptr %10, ptr %3, align 8, !tbaa !4
  call void @llvm.lifetime.start.p0(i64 8, ptr %4) #12
  %11 = load ptr, ptr %3, align 8, !tbaa !4
  %12 = getelementptr inbounds nuw %struct.AVFilterContext, ptr %11, i32 0, i32 9
  %13 = load ptr, ptr %12, align 8, !tbaa !9
  store ptr %13, ptr %4, align 8, !tbaa !22
  call void @llvm.lifetime.start.p0(i64 8, ptr %5) #12
  %14 = load ptr, ptr %2, align 8, !tbaa !44
  %15 = getelementptr inbounds nuw %struct.AVFilterLink, ptr %14, i32 0, i32 5
  %16 = load i32, ptr %15, align 4, !tbaa !56
  %17 = call ptr @av_pix_fmt_desc_get(i32 noundef %16)
  store ptr %17, ptr %5, align 8, !tbaa !57
  call void @llvm.lifetime.start.p0(i64 4, ptr %6) #12
  %18 = load ptr, ptr %5, align 8, !tbaa !57
  %19 = getelementptr inbounds nuw %struct.AVPixFmtDescriptor, ptr %18, i32 0, i32 2
  %20 = load i8, ptr %19, align 1, !tbaa !59
  %21 = zext i8 %20 to i32
  store i32 %21, ptr %6, align 4, !tbaa !24
  call void @llvm.lifetime.start.p0(i64 4, ptr %7) #12
  %22 = load ptr, ptr %5, align 8, !tbaa !57
  %23 = getelementptr inbounds nuw %struct.AVPixFmtDescriptor, ptr %22, i32 0, i32 3
  %24 = load i8, ptr %23, align 2, !tbaa !61
  %25 = zext i8 %24 to i32
  store i32 %25, ptr %7, align 4, !tbaa !24
  %26 = load ptr, ptr %2, align 8, !tbaa !44
  %27 = getelementptr inbounds nuw %struct.AVFilterLink, ptr %26, i32 0, i32 5
  %28 = load i32, ptr %27, align 4, !tbaa !56
  %29 = call i32 @av_pix_fmt_count_planes(i32 noundef %28)
  %30 = load ptr, ptr %4, align 8, !tbaa !22
  %31 = getelementptr inbounds nuw %struct.LUT2Context, ptr %30, i32 0, i32 13
  store i32 %29, ptr %31, align 8, !tbaa !62
  %32 = load i32, ptr %7, align 4, !tbaa !24
  %33 = call i1 @llvm.is.constant.i32(i32 %32)
  br i1 %33, label %42, label %34

34:                                               ; preds = %1
  %35 = load ptr, ptr %2, align 8, !tbaa !44
  %36 = getelementptr inbounds nuw %struct.AVFilterLink, ptr %35, i32 0, i32 7
  %37 = load i32, ptr %36, align 4, !tbaa !63
  %38 = sub nsw i32 0, %37
  %39 = load i32, ptr %7, align 4, !tbaa !24
  %40 = ashr i32 %38, %39
  %41 = sub nsw i32 0, %40
  br label %52

42:                                               ; preds = %1
  %43 = load ptr, ptr %2, align 8, !tbaa !44
  %44 = getelementptr inbounds nuw %struct.AVFilterLink, ptr %43, i32 0, i32 7
  %45 = load i32, ptr %44, align 4, !tbaa !63
  %46 = load i32, ptr %7, align 4, !tbaa !24
  %47 = shl i32 1, %46
  %48 = add nsw i32 %45, %47
  %49 = sub nsw i32 %48, 1
  %50 = load i32, ptr %7, align 4, !tbaa !24
  %51 = ashr i32 %49, %50
  br label %52

52:                                               ; preds = %42, %34
  %53 = phi i32 [ %41, %34 ], [ %51, %42 ]
  %54 = load ptr, ptr %4, align 8, !tbaa !22
  %55 = getelementptr inbounds nuw %struct.LUT2Context, ptr %54, i32 0, i32 10
  %56 = getelementptr inbounds [4 x i32], ptr %55, i64 0, i64 2
  store i32 %53, ptr %56, align 8, !tbaa !24
  %57 = load ptr, ptr %4, align 8, !tbaa !22
  %58 = getelementptr inbounds nuw %struct.LUT2Context, ptr %57, i32 0, i32 10
  %59 = getelementptr inbounds [4 x i32], ptr %58, i64 0, i64 1
  store i32 %53, ptr %59, align 4, !tbaa !24
  %60 = load ptr, ptr %2, align 8, !tbaa !44
  %61 = getelementptr inbounds nuw %struct.AVFilterLink, ptr %60, i32 0, i32 7
  %62 = load i32, ptr %61, align 4, !tbaa !63
  %63 = load ptr, ptr %4, align 8, !tbaa !22
  %64 = getelementptr inbounds nuw %struct.LUT2Context, ptr %63, i32 0, i32 10
  %65 = getelementptr inbounds [4 x i32], ptr %64, i64 0, i64 3
  store i32 %62, ptr %65, align 4, !tbaa !24
  %66 = load ptr, ptr %4, align 8, !tbaa !22
  %67 = getelementptr inbounds nuw %struct.LUT2Context, ptr %66, i32 0, i32 10
  %68 = getelementptr inbounds [4 x i32], ptr %67, i64 0, i64 0
  store i32 %62, ptr %68, align 8, !tbaa !24
  %69 = load i32, ptr %6, align 4, !tbaa !24
  %70 = call i1 @llvm.is.constant.i32(i32 %69)
  br i1 %70, label %79, label %71

71:                                               ; preds = %52
  %72 = load ptr, ptr %2, align 8, !tbaa !44
  %73 = getelementptr inbounds nuw %struct.AVFilterLink, ptr %72, i32 0, i32 6
  %74 = load i32, ptr %73, align 8, !tbaa !64
  %75 = sub nsw i32 0, %74
  %76 = load i32, ptr %6, align 4, !tbaa !24
  %77 = ashr i32 %75, %76
  %78 = sub nsw i32 0, %77
  br label %89

79:                                               ; preds = %52
  %80 = load ptr, ptr %2, align 8, !tbaa !44
  %81 = getelementptr inbounds nuw %struct.AVFilterLink, ptr %80, i32 0, i32 6
  %82 = load i32, ptr %81, align 8, !tbaa !64
  %83 = load i32, ptr %6, align 4, !tbaa !24
  %84 = shl i32 1, %83
  %85 = add nsw i32 %82, %84
  %86 = sub nsw i32 %85, 1
  %87 = load i32, ptr %6, align 4, !tbaa !24
  %88 = ashr i32 %86, %87
  br label %89

89:                                               ; preds = %79, %71
  %90 = phi i32 [ %78, %71 ], [ %88, %79 ]
  %91 = load ptr, ptr %4, align 8, !tbaa !22
  %92 = getelementptr inbounds nuw %struct.LUT2Context, ptr %91, i32 0, i32 9
  %93 = getelementptr inbounds [4 x i32], ptr %92, i64 0, i64 2
  store i32 %90, ptr %93, align 8, !tbaa !24
  %94 = load ptr, ptr %4, align 8, !tbaa !22
  %95 = getelementptr inbounds nuw %struct.LUT2Context, ptr %94, i32 0, i32 9
  %96 = getelementptr inbounds [4 x i32], ptr %95, i64 0, i64 1
  store i32 %90, ptr %96, align 4, !tbaa !24
  %97 = load ptr, ptr %2, align 8, !tbaa !44
  %98 = getelementptr inbounds nuw %struct.AVFilterLink, ptr %97, i32 0, i32 6
  %99 = load i32, ptr %98, align 8, !tbaa !64
  %100 = load ptr, ptr %4, align 8, !tbaa !22
  %101 = getelementptr inbounds nuw %struct.LUT2Context, ptr %100, i32 0, i32 9
  %102 = getelementptr inbounds [4 x i32], ptr %101, i64 0, i64 3
  store i32 %99, ptr %102, align 4, !tbaa !24
  %103 = load ptr, ptr %4, align 8, !tbaa !22
  %104 = getelementptr inbounds nuw %struct.LUT2Context, ptr %103, i32 0, i32 9
  %105 = getelementptr inbounds [4 x i32], ptr %104, i64 0, i64 0
  store i32 %99, ptr %105, align 8, !tbaa !24
  %106 = load ptr, ptr %2, align 8, !tbaa !44
  %107 = getelementptr inbounds nuw %struct.AVFilterLink, ptr %106, i32 0, i32 6
  %108 = load i32, ptr %107, align 8, !tbaa !64
  %109 = sitofp i32 %108 to double
  %110 = load ptr, ptr %4, align 8, !tbaa !22
  %111 = getelementptr inbounds nuw %struct.LUT2Context, ptr %110, i32 0, i32 5
  %112 = getelementptr inbounds [6 x double], ptr %111, i64 0, i64 0
  store double %109, ptr %112, align 8, !tbaa !65
  %113 = load ptr, ptr %2, align 8, !tbaa !44
  %114 = getelementptr inbounds nuw %struct.AVFilterLink, ptr %113, i32 0, i32 7
  %115 = load i32, ptr %114, align 4, !tbaa !63
  %116 = sitofp i32 %115 to double
  %117 = load ptr, ptr %4, align 8, !tbaa !22
  %118 = getelementptr inbounds nuw %struct.LUT2Context, ptr %117, i32 0, i32 5
  %119 = getelementptr inbounds [6 x double], ptr %118, i64 0, i64 1
  store double %116, ptr %119, align 8, !tbaa !65
  %120 = load ptr, ptr %5, align 8, !tbaa !57
  %121 = getelementptr inbounds nuw %struct.AVPixFmtDescriptor, ptr %120, i32 0, i32 5
  %122 = getelementptr inbounds [4 x %struct.AVComponentDescriptor], ptr %121, i64 0, i64 0
  %123 = getelementptr inbounds nuw %struct.AVComponentDescriptor, ptr %122, i32 0, i32 4
  %124 = load i32, ptr %123, align 8, !tbaa !67
  %125 = load ptr, ptr %4, align 8, !tbaa !22
  %126 = getelementptr inbounds nuw %struct.LUT2Context, ptr %125, i32 0, i32 17
  store i32 %124, ptr %126, align 8, !tbaa !69
  %127 = load ptr, ptr %4, align 8, !tbaa !22
  %128 = getelementptr inbounds nuw %struct.LUT2Context, ptr %127, i32 0, i32 17
  %129 = load i32, ptr %128, align 8, !tbaa !69
  %130 = sitofp i32 %129 to double
  %131 = load ptr, ptr %4, align 8, !tbaa !22
  %132 = getelementptr inbounds nuw %struct.LUT2Context, ptr %131, i32 0, i32 5
  %133 = getelementptr inbounds [6 x double], ptr %132, i64 0, i64 4
  store double %130, ptr %133, align 8, !tbaa !65
  %134 = load ptr, ptr %4, align 8, !tbaa !22
  %135 = getelementptr inbounds nuw %struct.LUT2Context, ptr %134, i32 0, i32 19
  %136 = load i32, ptr %135, align 8, !tbaa !31
  %137 = icmp ne i32 %136, 0
  br i1 %137, label %138, label %153

138:                                              ; preds = %89
  %139 = load ptr, ptr %5, align 8, !tbaa !57
  %140 = getelementptr inbounds nuw %struct.AVPixFmtDescriptor, ptr %139, i32 0, i32 5
  %141 = getelementptr inbounds [4 x %struct.AVComponentDescriptor], ptr %140, i64 0, i64 0
  %142 = getelementptr inbounds nuw %struct.AVComponentDescriptor, ptr %141, i32 0, i32 4
  %143 = load i32, ptr %142, align 8, !tbaa !67
  %144 = load ptr, ptr %4, align 8, !tbaa !22
  %145 = getelementptr inbounds nuw %struct.LUT2Context, ptr %144, i32 0, i32 18
  store i32 %143, ptr %145, align 4, !tbaa !70
  %146 = load ptr, ptr %4, align 8, !tbaa !22
  %147 = getelementptr inbounds nuw %struct.LUT2Context, ptr %146, i32 0, i32 18
  %148 = load i32, ptr %147, align 4, !tbaa !70
  %149 = sitofp i32 %148 to double
  %150 = load ptr, ptr %4, align 8, !tbaa !22
  %151 = getelementptr inbounds nuw %struct.LUT2Context, ptr %150, i32 0, i32 5
  %152 = getelementptr inbounds [6 x double], ptr %151, i64 0, i64 5
  store double %149, ptr %152, align 8, !tbaa !65
  br label %153

153:                                              ; preds = %138, %89
  call void @llvm.lifetime.end.p0(i64 4, ptr %7) #12
  call void @llvm.lifetime.end.p0(i64 4, ptr %6) #12
  call void @llvm.lifetime.end.p0(i64 8, ptr %5) #12
  call void @llvm.lifetime.end.p0(i64 8, ptr %4) #12
  call void @llvm.lifetime.end.p0(i64 8, ptr %3) #12
  ret i32 0
}