; Function Attrs: nounwind uwtable
define internal noundef i32 @config_inputx(ptr noundef readonly captures(none) %0) #0 {
  %2 = getelementptr inbounds nuw i8, ptr %0, i64 16
  %3 = load ptr, ptr %2, align 8, !tbaa !41
  %4 = getelementptr inbounds nuw i8, ptr %3, i64 72
  %5 = load ptr, ptr %4, align 8, !tbaa !4
  %6 = getelementptr inbounds nuw i8, ptr %0, i64 36
  %7 = load i32, ptr %6, align 4, !tbaa !48
  %8 = tail call ptr @av_pix_fmt_desc_get(i32 noundef %7) #11
  %9 = getelementptr inbounds nuw i8, ptr %8, i64 9
  %10 = load i8, ptr %9, align 1, !tbaa !49
  %11 = zext nneg i8 %10 to i32
  %12 = getelementptr inbounds nuw i8, ptr %8, i64 10
  %13 = load i8, ptr %12, align 2, !tbaa !51
  %14 = load i32, ptr %6, align 4, !tbaa !48
  %15 = tail call i32 @av_pix_fmt_count_planes(i32 noundef %14) #11
  %16 = getelementptr inbounds nuw i8, ptr %5, i64 352
  store i32 %15, ptr %16, align 8, !tbaa !52
  %17 = getelementptr inbounds nuw i8, ptr %0, i64 44
  %18 = load i32, ptr %17, align 4, !tbaa !53
  %19 = sub nsw i32 0, %18
  %20 = zext nneg i8 %13 to i32
  %21 = ashr i32 %19, %20
  %22 = sub nsw i32 0, %21
  %23 = getelementptr inbounds nuw i8, ptr %5, i64 304
  %24 = getelementptr inbounds nuw i8, ptr %5, i64 312
  store i32 %22, ptr %24, align 8, !tbaa !54
  %25 = getelementptr inbounds nuw i8, ptr %5, i64 308
  store i32 %22, ptr %25, align 4, !tbaa !54
  %26 = getelementptr inbounds nuw i8, ptr %0, i64 44
  %27 = load i32, ptr %26, align 4, !tbaa !53
  %28 = getelementptr inbounds nuw i8, ptr %5, i64 316
  store i32 %27, ptr %28, align 4, !tbaa !54
  store i32 %27, ptr %23, align 8, !tbaa !54
  %29 = getelementptr inbounds nuw i8, ptr %0, i64 40
  %30 = load i32, ptr %29, align 8, !tbaa !55
  %31 = sub nsw i32 0, %30
  %32 = ashr i32 %31, %11
  %33 = sub nsw i32 0, %32
  %34 = getelementptr inbounds nuw i8, ptr %5, i64 288
  %35 = getelementptr inbounds nuw i8, ptr %5, i64 296
  store i32 %33, ptr %35, align 8, !tbaa !54
  %36 = getelementptr inbounds nuw i8, ptr %5, i64 292
  store i32 %33, ptr %36, align 4, !tbaa !54
  %37 = getelementptr inbounds nuw i8, ptr %0, i64 40
  %38 = load i32, ptr %37, align 8, !tbaa !55
  %39 = getelementptr inbounds nuw i8, ptr %5, i64 300
  store i32 %38, ptr %39, align 4, !tbaa !54
  store i32 %38, ptr %34, align 8, !tbaa !54
  %40 = load i32, ptr %37, align 8, !tbaa !55
  %41 = sitofp i32 %40 to double
  %42 = getelementptr inbounds nuw i8, ptr %5, i64 176
  store double %41, ptr %42, align 8, !tbaa !56
  %43 = load i32, ptr %26, align 4, !tbaa !53
  %44 = sitofp i32 %43 to double
  %45 = getelementptr inbounds nuw i8, ptr %5, i64 184
  store double %44, ptr %45, align 8, !tbaa !56
  %46 = getelementptr inbounds nuw i8, ptr %8, i64 40
  %47 = load i32, ptr %46, align 8, !tbaa !58
  %48 = getelementptr inbounds nuw i8, ptr %5, i64 368
  store i32 %47, ptr %48, align 8, !tbaa !60
  %49 = sitofp i32 %47 to double
  %50 = getelementptr inbounds nuw i8, ptr %5, i64 208
  store double %49, ptr %50, align 8, !tbaa !56
  %51 = getelementptr inbounds nuw i8, ptr %5, i64 376
  %52 = load i32, ptr %51, align 8, !tbaa !24
  %.not = icmp eq i32 %52, 0
  br i1 %.not, label %56, label %53

53:                                               ; preds = %1
  %54 = getelementptr inbounds nuw i8, ptr %5, i64 372
  store i32 %47, ptr %54, align 4, !tbaa !61
  %55 = getelementptr inbounds nuw i8, ptr %5, i64 216
  store double %49, ptr %55, align 8, !tbaa !56
  br label %56

56:                                               ; preds = %53, %1
  ret i32 0
}